target datalayout = "e-m:e-p270:32:32-p271:32:32-p272:64:64-i64:64-i128:128-f80:128-n8:16:32:64-S128"
target triple = "x86_64-pc-linux-gnu"

%struct._cairo_rectangle_int = type { i32, i32, i32, i32 }

@.str.37 = private unnamed_addr constant [33 x i8] c"ui_last/preferences_dialog_width\00", align 1
@.str.38 = private unnamed_addr constant [34 x i8] c"ui_last/preferences_dialog_height\00", align 1

; Function Attrs: nounwind uwtable
define internal void @_resize_dialog(ptr noundef %0) #0 {
  %2 = alloca ptr, align 8
  %3 = alloca %struct._cairo_rectangle_int, align 4
  store ptr %0, ptr %2, align 8, !tbaa !6
  call void @llvm.lifetime.start.p0(i64 16, ptr %3) #10
  %4 = load ptr, ptr %2, align 8, !tbaa !6
  call void @gtk_widget_get_allocation(ptr noundef %4, ptr noundef %3)
  %5 = getelementptr inbounds nuw %struct._cairo_rectangle_int, ptr %3, i32 0, i32 2
  %6 = load i32, ptr %5, align 4, !tbaa !84
  call void @dt_conf_set_int(ptr noundef @.str.37, i32 noundef %6)
  %7 = getelementptr inbounds nuw %struct._cairo_rectangle_int, ptr %3, i32 0, i32 3
  %8 = load i32, ptr %7, align 4, !tbaa !86
  call void @dt_conf_set_int(ptr noundef @.str.38, i32 noundef %8)
  call void @llvm.lifetime.end.p0(i64 16, ptr %3) #10
  ret void
}