; Function Attrs: nounwind uwtable
define internal void @_resize_dialog(ptr noundef %0) #0 {
  %2 = alloca %struct._cairo_rectangle_int, align 4
  call void @llvm.lifetime.start.p0(i64 16, ptr nonnull %2) #12
  call void @gtk_widget_get_allocation(ptr noundef %0, ptr noundef nonnull %2) #12
  %3 = getelementptr inbounds nuw i8, ptr %2, i64 8
  %4 = load i32, ptr %3, align 4, !tbaa !80
  call void @dt_conf_set_int(ptr noundef nonnull @.str.37, i32 noundef %4) #12
  %5 = getelementptr inbounds nuw i8, ptr %2, i64 12
  %6 = load i32, ptr %5, align 4, !tbaa !82
  call void @dt_conf_set_int(ptr noundef nonnull @.str.38, i32 noundef %6) #12
  call void @llvm.lifetime.end.p0(i64 16, ptr nonnull %2) #12
  ret void
}